#include <math.h>
#include <stdio.h>
#include <stdlib.h>
#include <string.h>

void main()
{
	int n,k,m,i,s;
	scanf("%d %d",&n,&k);
	i=0;m=0;s=0;
	for(m=n;i<n;m++)
	{i=0;s=m;
	for(;i<n;i++)
		if(s%n==k&&s>=n)
		s=s-s/n-k;
		else break;}
	printf("%d\n",m-1);
}