; ModuleID = '54/75.c'
source_filename = "54/75.c"
target datalayout = "e-m:e-p270:32:32-p271:32:32-p272:64:64-i64:64-f80:128-n8:16:32:64-S128"
target triple = "x86_64-pc-linux-gnu"

@.str = private unnamed_addr constant [6 x i8] c"%d %d\00", align 1
@.str.1 = private unnamed_addr constant [4 x i8] c"%d\0A\00", align 1

; Function Attrs: noinline nounwind uwtable
define dso_local void @main() #0 {
  %1 = alloca i32, align 4
  %2 = alloca i32, align 4
  %3 = alloca i32, align 4
  %4 = alloca i32, align 4
  %5 = alloca i32, align 4
  %6 = call i32 (i8*, ...) @__isoc99_scanf(i8* getelementptr inbounds ([6 x i8], [6 x i8]* @.str, i64 0, i64 0), i32* %1, i32* %2)
  store i32 0, i32* %4, align 4
  store i32 0, i32* %3, align 4
  store i32 0, i32* %5, align 4
  %7 = load i32, i32* %1, align 4
  store i32 %7, i32* %3, align 4
  br label %8

8:                                                ; preds = %42, %0
  %9 = load i32, i32* %4, align 4
  %10 = load i32, i32* %1, align 4
  %11 = icmp slt i32 %9, %10
  br i1 %11, label %12, label %45

12:                                               ; preds = %8
  store i32 0, i32* %4, align 4
  %13 = load i32, i32* %3, align 4
  store i32 %13, i32* %5, align 4
  br label %14

14:                                               ; preds = %38, %12
  %15 = load i32, i32* %4, align 4
  %16 = load i32, i32* %1, align 4
  %17 = icmp slt i32 %15, %16
  br i1 %17, label %18, label %41

18:                                               ; preds = %14
  %19 = load i32, i32* %5, align 4
  %20 = load i32, i32* %1, align 4
  %21 = srem i32 %19, %20
  %22 = load i32, i32* %2, align 4
  %23 = icmp eq i32 %21, %22
  br i1 %23, label %24, label %36

24:                                               ; preds = %18
  %25 = load i32, i32* %5, align 4
  %26 = load i32, i32* %1, align 4
  %27 = icmp sge i32 %25, %26
  br i1 %27, label %28, label %36

28:                                               ; preds = %24
  %29 = load i32, i32* %5, align 4
  %30 = load i32, i32* %5, align 4
  %31 = load i32, i32* %1, align 4
  %32 = sdiv i32 %30, %31
  %33 = sub nsw i32 %29, %32
  %34 = load i32, i32* %2, align 4
  %35 = sub nsw i32 %33, %34
  store i32 %35, i32* %5, align 4
  br label %37

36:                                               ; preds = %24, %18
  br label %41

37:                                               ; preds = %28
  br label %38

38:                                               ; preds = %37
  %39 = load i32, i32* %4, align 4
  %40 = add nsw i32 %39, 1
  store i32 %40, i32* %4, align 4
  br label %14

41:                                               ; preds = %36, %14
  br label %42

42:                                               ; preds = %41
  %43 = load i32, i32* %3, align 4
  %44 = add nsw i32 %43, 1
  store i32 %44, i32* %3, align 4
  br label %8

45:                                               ; preds = %8
  %46 = load i32, i32* %3, align 4
  %47 = sub nsw i32 %46, 1
  %48 = call i32 (i8*, ...) @printf(i8* getelementptr inbounds ([4 x i8], [4 x i8]* @.str.1, i64 0, i64 0), i32 %47)
  ret void
}

declare dso_local i32 @__isoc99_scanf(i8*, ...) #1

declare dso_local i32 @printf(i8*, ...) #1


!llvm.module.flags = !{!0}
!llvm.ident = !{!1}

!0 = !{i32 1, !"wchar_size", i32 4}
!1 = !{!"clang version 10.0.0-4ubuntu1 "}
