; ModuleID = 'source-C-CXX/53/75.c'
source_filename = "source-C-CXX/53/75.c"
target datalayout = "e-m:e-p270:32:32-p271:32:32-p272:64:64-i64:64-f80:128-n8:16:32:64-S128"
target triple = "x86_64-pc-linux-gnu"

@.str = private unnamed_addr constant [6 x i8] c"%d %d\00", align 1
@.str.1 = private unnamed_addr constant [4 x i8] c"%d\0A\00", align 1

; Function Attrs: nofree nounwind sspstrong uwtable
define dso_local void @main() local_unnamed_addr #0 {
  %1 = alloca i32, align 4
  %2 = alloca i32, align 4
  %3 = bitcast i32* %1 to i8*
  call void @llvm.lifetime.start.p0i8(i64 4, i8* nonnull %3) #3
  %4 = bitcast i32* %2 to i8*
  call void @llvm.lifetime.start.p0i8(i64 4, i8* nonnull %4) #3
  %5 = call i32 (i8*, ...) @__isoc99_scanf(i8* getelementptr inbounds ([6 x i8], [6 x i8]* @.str, i64 0, i64 0), i32* nonnull %1, i32* nonnull %2)
  %6 = load i32, i32* %1, align 4, !tbaa !5
  %7 = load i32, i32* %2, align 4
  %8 = icmp sgt i32 %6, 0
  br i1 %8, label %9, label %29

9:                                                ; preds = %0, %26
  %10 = phi i32 [ %27, %26 ], [ %6, %0 ]
  br label %11

11:                                               ; preds = %9, %19
  %12 = phi i32 [ %10, %9 ], [ %21, %19 ]
  %13 = phi i32 [ 0, %9 ], [ %22, %19 ]
  %14 = srem i32 %12, %6
  %15 = sdiv i32 %12, %6
  %16 = icmp ne i32 %14, %7
  %17 = icmp slt i32 %12, %6
  %18 = or i1 %17, %16
  br i1 %18, label %26, label %19

19:                                               ; preds = %11
  %20 = add i32 %7, %15
  %21 = sub i32 %12, %20
  %22 = add nuw nsw i32 %13, 1
  %23 = icmp eq i32 %22, %6
  br i1 %23, label %24, label %11, !llvm.loop !9

24:                                               ; preds = %19
  %25 = add nsw i32 %10, 1
  br label %29

26:                                               ; preds = %11
  %27 = add nsw i32 %10, 1
  %28 = icmp slt i32 %13, %6
  br i1 %28, label %9, label %29, !llvm.loop !11

29:                                               ; preds = %26, %24, %0
  %30 = phi i32 [ %6, %0 ], [ %25, %24 ], [ %27, %26 ]
  %31 = add nsw i32 %30, -1
  %32 = call i32 (i8*, ...) @printf(i8* nonnull dereferenceable(1) getelementptr inbounds ([4 x i8], [4 x i8]* @.str.1, i64 0, i64 0), i32 %31)
  call void @llvm.lifetime.end.p0i8(i64 4, i8* nonnull %4) #3
  call void @llvm.lifetime.end.p0i8(i64 4, i8* nonnull %3) #3
  ret void
}

; Function Attrs: argmemonly mustprogress nofree nosync nounwind willreturn
declare void @llvm.lifetime.start.p0i8(i64 immarg, i8* nocapture) #1

; Function Attrs: nofree nounwind
declare noundef i32 @__isoc99_scanf(i8* nocapture noundef readonly, ...) local_unnamed_addr #2

; Function Attrs: nofree nounwind
declare noundef i32 @printf(i8* nocapture noundef readonly, ...) local_unnamed_addr #2

; Function Attrs: argmemonly mustprogress nofree nosync nounwind willreturn
declare void @llvm.lifetime.end.p0i8(i64 immarg, i8* nocapture) #1


!llvm.module.flags = !{!0, !1, !2, !3}
!llvm.ident = !{!4}

!0 = !{i32 1, !"wchar_size", i32 4}
!1 = !{i32 7, !"PIC Level", i32 2}
!2 = !{i32 7, !"PIE Level", i32 2}
!3 = !{i32 7, !"uwtable", i32 1}
!4 = !{!"clang version 13.0.0"}
!5 = !{!6, !6, i64 0}
!6 = !{!"int", !7, i64 0}
!7 = !{!"omnipotent char", !8, i64 0}
!8 = !{!"Simple C/C++ TBAA"}
!9 = distinct !{!9, !10}
!10 = !{!"llvm.loop.mustprogress"}
!11 = distinct !{!11, !10}
